target datalayout = "e-m:e-p270:32:32-p271:32:32-p272:64:64-i64:64-i128:128-f80:128-n8:16:32:64-S128"
target triple = "x86_64-pc-linux-gnu"

%struct.XML_Memory_Handling_Suite = type { ptr, ptr, ptr }
%struct.XML_ParserStruct = type { ptr, ptr, ptr, %struct.XML_Memory_Handling_Suite, ptr, ptr, ptr, i64, ptr, i64, i8, i32, ptr, ptr, ptr, ptr, ptr, ptr, ptr, ptr, ptr, ptr, ptr, ptr, ptr, ptr, ptr, ptr, ptr, ptr, ptr, ptr, ptr, ptr, ptr, ptr, ptr, ptr, %struct.INIT_ENCODING, ptr, ptr, i8, i8, ptr, ptr, ptr, ptr, %struct.prolog_state, ptr, i32, ptr, ptr, ptr, ptr, ptr, i8, i32, ptr, ptr, ptr, ptr, ptr, ptr, ptr, ptr, ptr, i8, i8, ptr, ptr, ptr, ptr, ptr, ptr, i32, i32, i32, ptr, ptr, i64, i8, %struct.position, %struct.STRING_POOL, %struct.STRING_POOL, ptr, i32, i8, ptr, %struct.XML_ParsingStatus, i64 }
%struct.INIT_ENCODING = type { %struct.encoding, ptr }
%struct.encoding = type { [3 x ptr], [2 x ptr], ptr, ptr, ptr, ptr, ptr, ptr, ptr, ptr, ptr, ptr, i32, i8, i8 }
%struct.prolog_state = type { ptr, i32, i32 }
%struct.position = type { i64, i64 }
%struct.STRING_POOL = type { ptr, ptr, ptr, ptr, ptr, ptr }
%struct.XML_ParsingStatus = type { i32, i8 }

; Function Attrs: nounwind uwtable
define internal i32 @externalEntityInitProcessor2(ptr noundef %0, ptr noundef %1, ptr noundef %2, ptr noundef %3) #0 {
  %5 = alloca i32, align 4
  %6 = alloca ptr, align 8
  %7 = alloca ptr, align 8
  %8 = alloca ptr, align 8
  %9 = alloca ptr, align 8
  %10 = alloca ptr, align 8
  %11 = alloca i32, align 4
  %12 = alloca i32, align 4
  store ptr %0, ptr %6, align 8, !tbaa !13
  store ptr %1, ptr %7, align 8, !tbaa !4
  store ptr %2, ptr %8, align 8, !tbaa !4
  store ptr %3, ptr %9, align 8, !tbaa !191
  call void @llvm.lifetime.start.p0(i64 8, ptr %10) #10
  %13 = load ptr, ptr %7, align 8, !tbaa !4
  store ptr %13, ptr %10, align 8, !tbaa !4
  call void @llvm.lifetime.start.p0(i64 4, ptr %11) #10
  %14 = load ptr, ptr %6, align 8, !tbaa !13
  %15 = getelementptr inbounds nuw %struct.XML_ParserStruct, ptr %14, i32 0, i32 37
  %16 = load ptr, ptr %15, align 8, !tbaa !201
  %17 = getelementptr inbounds nuw %struct.encoding, ptr %16, i32 0, i32 0
  %18 = getelementptr inbounds [3 x ptr], ptr %17, i64 0, i64 1
  %19 = load ptr, ptr %18, align 8, !tbaa !9
  %20 = load ptr, ptr %6, align 8, !tbaa !13
  %21 = getelementptr inbounds nuw %struct.XML_ParserStruct, ptr %20, i32 0, i32 37
  %22 = load ptr, ptr %21, align 8, !tbaa !201
  %23 = load ptr, ptr %7, align 8, !tbaa !4
  %24 = load ptr, ptr %8, align 8, !tbaa !4
  %25 = call i32 %19(ptr noundef %22, ptr noundef %23, ptr noundef %24, ptr noundef %10)
  store i32 %25, ptr %11, align 4, !tbaa !177
  %26 = load i32, ptr %11, align 4, !tbaa !177
  switch i32 %26, label %68 [
    i32 14, label %27
    i32 -1, label %42
    i32 -2, label %55
  ]

27:                                               ; preds = %4
  %28 = load ptr, ptr %10, align 8, !tbaa !4
  %29 = load ptr, ptr %8, align 8, !tbaa !4
  %30 = icmp eq ptr %28, %29
  br i1 %30, label %31, label %40

31:                                               ; preds = %27
  %32 = load ptr, ptr %6, align 8, !tbaa !13
  %33 = getelementptr inbounds nuw %struct.XML_ParserStruct, ptr %32, i32 0, i32 88
  %34 = getelementptr inbounds nuw %struct.XML_ParsingStatus, ptr %33, i32 0, i32 1
  %35 = load i8, ptr %34, align 4, !tbaa !200
  %36 = icmp ne i8 %35, 0
  br i1 %36, label %40, label %37

37:                                               ; preds = %31
  %38 = load ptr, ptr %10, align 8, !tbaa !4
  %39 = load ptr, ptr %9, align 8, !tbaa !191
  store ptr %38, ptr %39, align 8, !tbaa !4
  store i32 0, ptr %5, align 4
  store i32 1, ptr %12, align 4
  br label %76

40:                                               ; preds = %31, %27
  %41 = load ptr, ptr %10, align 8, !tbaa !4
  store ptr %41, ptr %7, align 8, !tbaa !4
  br label %68

42:                                               ; preds = %4
  %43 = load ptr, ptr %6, align 8, !tbaa !13
  %44 = getelementptr inbounds nuw %struct.XML_ParserStruct, ptr %43, i32 0, i32 88
  %45 = getelementptr inbounds nuw %struct.XML_ParsingStatus, ptr %44, i32 0, i32 1
  %46 = load i8, ptr %45, align 4, !tbaa !200
  %47 = icmp ne i8 %46, 0
  br i1 %47, label %51, label %48

48:                                               ; preds = %42
  %49 = load ptr, ptr %7, align 8, !tbaa !4
  %50 = load ptr, ptr %9, align 8, !tbaa !191
  store ptr %49, ptr %50, align 8, !tbaa !4
  store i32 0, ptr %5, align 4
  store i32 1, ptr %12, align 4
  br label %76

51:                                               ; preds = %42
  %52 = load ptr, ptr %7, align 8, !tbaa !4
  %53 = load ptr, ptr %6, align 8, !tbaa !13
  %54 = getelementptr inbounds nuw %struct.XML_ParserStruct, ptr %53, i32 0, i32 50
  store ptr %52, ptr %54, align 8, !tbaa !134
  store i32 5, ptr %5, align 4
  store i32 1, ptr %12, align 4
  br label %76

55:                                               ; preds = %4
  %56 = load ptr, ptr %6, align 8, !tbaa !13
  %57 = getelementptr inbounds nuw %struct.XML_ParserStruct, ptr %56, i32 0, i32 88
  %58 = getelementptr inbounds nuw %struct.XML_ParsingStatus, ptr %57, i32 0, i32 1
  %59 = load i8, ptr %58, align 4, !tbaa !200
  %60 = icmp ne i8 %59, 0
  br i1 %60, label %64, label %61

61:                                               ; preds = %55
  %62 = load ptr, ptr %7, align 8, !tbaa !4
  %63 = load ptr, ptr %9, align 8, !tbaa !191
  store ptr %62, ptr %63, align 8, !tbaa !4
  store i32 0, ptr %5, align 4
  store i32 1, ptr %12, align 4
  br label %76

64:                                               ; preds = %55
  %65 = load ptr, ptr %7, align 8, !tbaa !4
  %66 = load ptr, ptr %6, align 8, !tbaa !13
  %67 = getelementptr inbounds nuw %struct.XML_ParserStruct, ptr %66, i32 0, i32 50
  store ptr %65, ptr %67, align 8, !tbaa !134
  store i32 6, ptr %5, align 4
  store i32 1, ptr %12, align 4
  br label %76

68:                                               ; preds = %4, %40
  %69 = load ptr, ptr %6, align 8, !tbaa !13
  %70 = getelementptr inbounds nuw %struct.XML_ParserStruct, ptr %69, i32 0, i32 48
  store ptr @externalEntityInitProcessor3, ptr %70, align 8, !tbaa !89
  %71 = load ptr, ptr %6, align 8, !tbaa !13
  %72 = load ptr, ptr %7, align 8, !tbaa !4
  %73 = load ptr, ptr %8, align 8, !tbaa !4
  %74 = load ptr, ptr %9, align 8, !tbaa !191
  %75 = call i32 @externalEntityInitProcessor3(ptr noundef %71, ptr noundef %72, ptr noundef %73, ptr noundef %74)
  store i32 %75, ptr %5, align 4
  store i32 1, ptr %12, align 4
  br label %76

76:                                               ; preds = %68, %64, %61, %51, %48, %37
  call void @llvm.lifetime.end.p0(i64 4, ptr %11) #10
  call void @llvm.lifetime.end.p0(i64 8, ptr %10) #10
  %77 = load i32, ptr %5, align 4
  ret i32 %77
}

; Function Attrs: nounwind uwtable
define internal i32 @externalEntityInitProcessor(ptr noundef %0, ptr noundef %1, ptr noundef %2, ptr noundef %3) #0 {
  %5 = alloca i32, align 4
  %6 = alloca ptr, align 8
  %7 = alloca ptr, align 8
  %8 = alloca ptr, align 8
  %9 = alloca ptr, align 8
  %10 = alloca i32, align 4
  %11 = alloca i32, align 4
  store ptr %0, ptr %6, align 8, !tbaa !13
  store ptr %1, ptr %7, align 8, !tbaa !4
  store ptr %2, ptr %8, align 8, !tbaa !4
  store ptr %3, ptr %9, align 8, !tbaa !191
  call void @llvm.lifetime.start.p0(i64 4, ptr %10) #10
  %12 = load ptr, ptr %6, align 8, !tbaa !13
  %13 = call i32 @initializeEncoding(ptr noundef %12)
  store i32 %13, ptr %10, align 4, !tbaa !177
  %14 = load i32, ptr %10, align 4, !tbaa !177
  %15 = icmp ne i32 %14, 0
  br i1 %15, label %16, label %18

16:                                               ; preds = %4
  %17 = load i32, ptr %10, align 4, !tbaa !177
  store i32 %17, ptr %5, align 4
  store i32 1, ptr %11, align 4
  br label %26

18:                                               ; preds = %4
  %19 = load ptr, ptr %6, align 8, !tbaa !13
  %20 = getelementptr inbounds nuw %struct.XML_ParserStruct, ptr %19, i32 0, i32 48
  store ptr @externalEntityInitProcessor2, ptr %20, align 8, !tbaa !89
  %21 = load ptr, ptr %6, align 8, !tbaa !13
  %22 = load ptr, ptr %7, align 8, !tbaa !4
  %23 = load ptr, ptr %8, align 8, !tbaa !4
  %24 = load ptr, ptr %9, align 8, !tbaa !191
  %25 = call i32 @externalEntityInitProcessor2(ptr noundef %21, ptr noundef %22, ptr noundef %23, ptr noundef %24)
  store i32 %25, ptr %5, align 4
  store i32 1, ptr %11, align 4
  br label %26

26:                                               ; preds = %18, %16
  call void @llvm.lifetime.end.p0(i64 4, ptr %10) #10
  %27 = load i32, ptr %5, align 4
  ret i32 %27
}