; Function Attrs: nounwind uwtable
define internal i32 @externalEntityInitProcessor(ptr noundef %0, ptr noundef %1, ptr noundef %2, ptr noundef writeonly captures(none) %3) #0 {
  %5 = alloca ptr, align 8
  %6 = tail call fastcc i32 @initializeEncoding(ptr noundef %0)
  %.not = icmp eq i32 %6, 0
  br i1 %.not, label %7, label %35

7:                                                ; preds = %4
  %8 = getelementptr inbounds nuw i8, ptr %0, i64 520
  store ptr @externalEntityInitProcessor2, ptr %8, align 8, !tbaa !61
  call void @llvm.lifetime.start.p0(i64 8, ptr nonnull %5) #23
  store ptr %1, ptr %5, align 8, !tbaa !185
  %9 = getelementptr inbounds nuw i8, ptr %0, i64 304
  %10 = load ptr, ptr %9, align 8, !tbaa !186
  %11 = getelementptr inbounds nuw i8, ptr %10, i64 8
  %12 = load ptr, ptr %11, align 8, !tbaa !103
  %13 = call i32 %12(ptr noundef %10, ptr noundef %1, ptr noundef %2, ptr noundef nonnull %5) #23
  switch i32 %13, label %33 [
    i32 14, label %14
    i32 -1, label %21
    i32 -2, label %27
  ]

14:                                               ; preds = %7
  %15 = load ptr, ptr %5, align 8, !tbaa !185
  %16 = icmp eq ptr %15, %2
  br i1 %16, label %17, label %33

17:                                               ; preds = %14
  %18 = getelementptr inbounds nuw i8, ptr %0, i64 900
  %19 = load i8, ptr %18, align 4, !tbaa !187
  %.not27.i = icmp eq i8 %19, 0
  br i1 %.not27.i, label %20, label %33

20:                                               ; preds = %17
  store ptr %15, ptr %3, align 8, !tbaa !185
  br label %externalEntityInitProcessor2.exit

21:                                               ; preds = %7
  %22 = getelementptr inbounds nuw i8, ptr %0, i64 900
  %23 = load i8, ptr %22, align 4, !tbaa !187
  %.not26.i = icmp eq i8 %23, 0
  br i1 %.not26.i, label %24, label %25

24:                                               ; preds = %21
  store ptr %1, ptr %3, align 8, !tbaa !185
  br label %externalEntityInitProcessor2.exit

25:                                               ; preds = %21
  %26 = getelementptr inbounds nuw i8, ptr %0, i64 536
  store ptr %1, ptr %26, align 8, !tbaa !188
  br label %externalEntityInitProcessor2.exit

27:                                               ; preds = %7
  %28 = getelementptr inbounds nuw i8, ptr %0, i64 900
  %29 = load i8, ptr %28, align 4, !tbaa !187
  %.not.i = icmp eq i8 %29, 0
  br i1 %.not.i, label %30, label %31

30:                                               ; preds = %27
  store ptr %1, ptr %3, align 8, !tbaa !185
  br label %externalEntityInitProcessor2.exit

31:                                               ; preds = %27
  %32 = getelementptr inbounds nuw i8, ptr %0, i64 536
  store ptr %1, ptr %32, align 8, !tbaa !188
  br label %externalEntityInitProcessor2.exit

33:                                               ; preds = %17, %14, %7
  %.024.i = phi ptr [ %1, %7 ], [ %15, %17 ], [ %15, %14 ]
  store ptr @externalEntityInitProcessor3, ptr %8, align 8, !tbaa !61
  %34 = call i32 @externalEntityInitProcessor3(ptr noundef nonnull %0, ptr noundef %.024.i, ptr noundef %2, ptr noundef %3)
  br label %externalEntityInitProcessor2.exit

externalEntityInitProcessor2.exit:                ; preds = %20, %24, %25, %30, %31, %33
  %.0.i = phi i32 [ %34, %33 ], [ 6, %31 ], [ 0, %30 ], [ 5, %25 ], [ 0, %24 ], [ 0, %20 ]
  call void @llvm.lifetime.end.p0(i64 8, ptr nonnull %5) #23
  br label %35

35:                                               ; preds = %4, %externalEntityInitProcessor2.exit
  %.0 = phi i32 [ %.0.i, %externalEntityInitProcessor2.exit ], [ %6, %4 ]
  ret i32 %.0
}